target datalayout = "e-m:e-p270:32:32-p271:32:32-p272:64:64-i64:64-i128:128-f80:128-n8:16:32:64-S128"
target triple = "x86_64-unknown-linux-gnu"

%"class.icu_75::UnicodeString" = type { %"class.icu_75::Replaceable", %"union.icu_75::UnicodeString::StackBufferOrFields" }
%"class.icu_75::Replaceable" = type { %"class.icu_75::UObject" }
%"class.icu_75::UObject" = type { ptr }
%"union.icu_75::UnicodeString::StackBufferOrFields" = type { %struct.anon.0, [32 x i8] }
%struct.anon.0 = type { i16, i32, i32, ptr }

@_ZN6icu_75L3ANYE = internal constant [4 x i16] [i16 65, i16 110, i16 121, i16 0], align 2

; Function Attrs: mustprogress nounwind uwtable
define linkonce_odr void @_ZN6icu_7513UnicodeString14setShortLengthEi(ptr noundef nonnull align 8 dereferenceable(64) %this, i32 noundef %len) #0 comdat align 2 {
entry:
  %this.addr = alloca ptr, align 8
  %len.addr = alloca i32, align 4
  store ptr %this, ptr %this.addr, align 8
  store i32 %len, ptr %len.addr, align 4
  %this1 = load ptr, ptr %this.addr, align 8
  %fUnion = getelementptr inbounds %"class.icu_75::UnicodeString", ptr %this1, i32 0, i32 1
  %fLengthAndFlags = getelementptr inbounds %struct.anon.0, ptr %fUnion, i32 0, i32 0
  %0 = load i16, ptr %fLengthAndFlags, align 8
  %conv = sext i16 %0 to i32
  %and = and i32 %conv, 31
  %1 = load i32, ptr %len.addr, align 4
  %shl = shl i32 %1, 5
  %or = or i32 %and, %shl
  %conv2 = trunc i32 %or to i16
  %fUnion3 = getelementptr inbounds %"class.icu_75::UnicodeString", ptr %this1, i32 0, i32 1
  %fLengthAndFlags4 = getelementptr inbounds %struct.anon.0, ptr %fUnion3, i32 0, i32 0
  store i16 %conv2, ptr %fLengthAndFlags4, align 8
  ret void
}

; Function Attrs: mustprogress uwtable
define linkonce_odr void @_ZN6icu_7513UnicodeString9setLengthEi(ptr noundef nonnull align 8 dereferenceable(64) %this, i32 noundef %len) #1 comdat align 2 {
entry:
  %this.addr = alloca ptr, align 8
  %len.addr = alloca i32, align 4
  store ptr %this, ptr %this.addr, align 8
  store i32 %len, ptr %len.addr, align 4
  %this1 = load ptr, ptr %this.addr, align 8
  %0 = load i32, ptr %len.addr, align 4
  %cmp = icmp sle i32 %0, 1023
  br i1 %cmp, label %if.then, label %if.else

if.then:                                          ; preds = %entry
  %1 = load i32, ptr %len.addr, align 4
  call void @_ZN6icu_7513UnicodeString14setShortLengthEi(ptr noundef nonnull align 8 dereferenceable(64) %this1, i32 noundef %1)
  br label %if.end

if.else:                                          ; preds = %entry
  %fUnion = getelementptr inbounds %"class.icu_75::UnicodeString", ptr %this1, i32 0, i32 1
  %fLengthAndFlags = getelementptr inbounds %struct.anon.0, ptr %fUnion, i32 0, i32 0
  %2 = load i16, ptr %fLengthAndFlags, align 8
  %conv = sext i16 %2 to i32
  %or = or i32 %conv, 65504
  %conv2 = trunc i32 %or to i16
  store i16 %conv2, ptr %fLengthAndFlags, align 8
  %3 = load i32, ptr %len.addr, align 4
  %fUnion3 = getelementptr inbounds %"class.icu_75::UnicodeString", ptr %this1, i32 0, i32 1
  %fLength = getelementptr inbounds %struct.anon.0, ptr %fUnion3, i32 0, i32 1
  store i32 %3, ptr %fLength, align 4
  br label %if.end

if.end:                                           ; preds = %if.else, %if.then
  ret void
}

; Function Attrs: mustprogress nounwind uwtable
define linkonce_odr noundef signext i8 @_ZNK6icu_7513UnicodeString7isBogusEv(ptr noundef nonnull align 8 dereferenceable(64) %this) #0 comdat align 2 {
entry:
  %this.addr = alloca ptr, align 8
  store ptr %this, ptr %this.addr, align 8
  %this1 = load ptr, ptr %this.addr, align 8
  %fUnion = getelementptr inbounds %"class.icu_75::UnicodeString", ptr %this1, i32 0, i32 1
  %fLengthAndFlags = getelementptr inbounds %struct.anon.0, ptr %fUnion, i32 0, i32 0
  %0 = load i16, ptr %fLengthAndFlags, align 8
  %conv = sext i16 %0 to i32
  %and = and i32 %conv, 1
  %conv2 = trunc i32 %and to i8
  ret i8 %conv2
}

; Function Attrs: mustprogress nounwind uwtable
define linkonce_odr noundef i32 @_ZNK6icu_7513UnicodeString14getShortLengthEv(ptr noundef nonnull align 8 dereferenceable(64) %this) #0 comdat align 2 {
entry:
  %this.addr = alloca ptr, align 8
  store ptr %this, ptr %this.addr, align 8
  %this1 = load ptr, ptr %this.addr, align 8
  %fUnion = getelementptr inbounds %"class.icu_75::UnicodeString", ptr %this1, i32 0, i32 1
  %fLengthAndFlags = getelementptr inbounds %struct.anon.0, ptr %fUnion, i32 0, i32 0
  %0 = load i16, ptr %fLengthAndFlags, align 8
  %conv = sext i16 %0 to i32
  %shr = ashr i32 %conv, 5
  ret i32 %shr
}

; Function Attrs: mustprogress nounwind uwtable
define linkonce_odr noundef signext i8 @_ZNK6icu_7513UnicodeString14hasShortLengthEv(ptr noundef nonnull align 8 dereferenceable(64) %this) #0 comdat align 2 {
entry:
  %this.addr = alloca ptr, align 8
  store ptr %this, ptr %this.addr, align 8
  %this1 = load ptr, ptr %this.addr, align 8
  %fUnion = getelementptr inbounds %"class.icu_75::UnicodeString", ptr %this1, i32 0, i32 1
  %fLengthAndFlags = getelementptr inbounds %struct.anon.0, ptr %fUnion, i32 0, i32 0
  %0 = load i16, ptr %fLengthAndFlags, align 8
  %conv = sext i16 %0 to i32
  %cmp = icmp sge i32 %conv, 0
  %conv2 = zext i1 %cmp to i8
  ret i8 %conv2
}

; Function Attrs: mustprogress uwtable
define linkonce_odr noundef signext i8 @_ZN6icu_7513UnicodeString8truncateEi(ptr noundef nonnull align 8 dereferenceable(64) %this, i32 noundef %targetLength) #1 comdat align 2 {
entry:
  %retval = alloca i8, align 1
  %this.addr = alloca ptr, align 8
  %targetLength.addr = alloca i32, align 4
  store ptr %this, ptr %this.addr, align 8
  store i32 %targetLength, ptr %targetLength.addr, align 4
  %this1 = load ptr, ptr %this.addr, align 8
  %call = call noundef signext i8 @_ZNK6icu_7513UnicodeString7isBogusEv(ptr noundef nonnull align 8 dereferenceable(64) %this1)
  %tobool = icmp ne i8 %call, 0
  br i1 %tobool, label %land.lhs.true, label %if.else

land.lhs.true:                                    ; preds = %entry
  %0 = load i32, ptr %targetLength.addr, align 4
  %cmp = icmp eq i32 %0, 0
  br i1 %cmp, label %if.then, label %if.else

if.then:                                          ; preds = %land.lhs.true
  call void @_ZN6icu_7513UnicodeString7unBogusEv(ptr noundef nonnull align 8 dereferenceable(64) %this1)
  store i8 0, ptr %retval, align 1
  br label %return

if.else:                                          ; preds = %land.lhs.true, %entry
  %1 = load i32, ptr %targetLength.addr, align 4
  %call2 = call noundef i32 @_ZNK6icu_7513UnicodeString6lengthEv(ptr noundef nonnull align 8 dereferenceable(64) %this1)
  %cmp3 = icmp ult i32 %1, %call2
  br i1 %cmp3, label %if.then4, label %if.else5

if.then4:                                         ; preds = %if.else
  %2 = load i32, ptr %targetLength.addr, align 4
  call void @_ZN6icu_7513UnicodeString9setLengthEi(ptr noundef nonnull align 8 dereferenceable(64) %this1, i32 noundef %2)
  store i8 1, ptr %retval, align 1
  br label %return

if.else5:                                         ; preds = %if.else
  store i8 0, ptr %retval, align 1
  br label %return

return:                                           ; preds = %if.else5, %if.then4, %if.then
  %3 = load i8, ptr %retval, align 1
  ret i8 %3
}

; Function Attrs: mustprogress uwtable
define linkonce_odr noundef nonnull align 8 dereferenceable(64) ptr @_ZN6icu_7513UnicodeString6appendERKS0_(ptr noundef nonnull align 8 dereferenceable(64) %this, ptr noundef nonnull align 8 dereferenceable(64) %srcText) #1 comdat align 2 {
entry:
  %this.addr = alloca ptr, align 8
  %srcText.addr = alloca ptr, align 8
  store ptr %this, ptr %this.addr, align 8
  store ptr %srcText, ptr %srcText.addr, align 8
  %this1 = load ptr, ptr %this.addr, align 8
  %0 = load ptr, ptr %srcText.addr, align 8
  %1 = load ptr, ptr %srcText.addr, align 8
  %call = call noundef i32 @_ZNK6icu_7513UnicodeString6lengthEv(ptr noundef nonnull align 8 dereferenceable(64) %1)
  %call2 = call noundef nonnull align 8 dereferenceable(64) ptr @_ZN6icu_7513UnicodeString8doAppendERKS0_ii(ptr noundef nonnull align 8 dereferenceable(64) %this1, ptr noundef nonnull align 8 dereferenceable(64) %0, i32 noundef 0, i32 noundef %call)
  ret ptr %call2
}

; Function Attrs: mustprogress uwtable
define linkonce_odr noundef nonnull align 8 dereferenceable(64) ptr @_ZN6icu_7513UnicodeString6appendEDs(ptr noundef nonnull align 8 dereferenceable(64) %this, i16 noundef zeroext %srcChar) #1 comdat align 2 {
entry:
  %this.addr = alloca ptr, align 8
  %srcChar.addr = alloca i16, align 2
  store ptr %this, ptr %this.addr, align 8
  store i16 %srcChar, ptr %srcChar.addr, align 2
  %this1 = load ptr, ptr %this.addr, align 8
  %call = call noundef nonnull align 8 dereferenceable(64) ptr @_ZN6icu_7513UnicodeString8doAppendEPKDsii(ptr noundef nonnull align 8 dereferenceable(64) %this1, ptr noundef %srcChar.addr, i32 noundef 0, i32 noundef 1)
  ret ptr %call
}

; Function Attrs: mustprogress uwtable
define linkonce_odr noundef nonnull align 8 dereferenceable(64) ptr @_ZN6icu_7513UnicodeString5setToEPKDsi(ptr noundef nonnull align 8 dereferenceable(64) %this, ptr noundef %srcChars, i32 noundef %srcLength) #1 comdat align 2 {
entry:
  %this.addr = alloca ptr, align 8
  %srcChars.addr = alloca ptr, align 8
  %srcLength.addr = alloca i32, align 4
  store ptr %this, ptr %this.addr, align 8
  store ptr %srcChars, ptr %srcChars.addr, align 8
  store i32 %srcLength, ptr %srcLength.addr, align 4
  %this1 = load ptr, ptr %this.addr, align 8
  call void @_ZN6icu_7513UnicodeString7unBogusEv(ptr noundef nonnull align 8 dereferenceable(64) %this1)
  %call = call noundef i32 @_ZNK6icu_7513UnicodeString6lengthEv(ptr noundef nonnull align 8 dereferenceable(64) %this1)
  %0 = load ptr, ptr %srcChars.addr, align 8
  %1 = load i32, ptr %srcLength.addr, align 4
  %call2 = call noundef nonnull align 8 dereferenceable(64) ptr @_ZN6icu_7513UnicodeString9doReplaceEiiPKDsii(ptr noundef nonnull align 8 dereferenceable(64) %this1, i32 noundef 0, i32 noundef %call, ptr noundef %0, i32 noundef 0, i32 noundef %1)
  ret ptr %call2
}

; Function Attrs: mustprogress uwtable
define linkonce_odr noundef i32 @_ZNK6icu_7513UnicodeString6lengthEv(ptr noundef nonnull align 8 dereferenceable(64) %this) #1 comdat align 2 {
entry:
  %this.addr = alloca ptr, align 8
  store ptr %this, ptr %this.addr, align 8
  %this1 = load ptr, ptr %this.addr, align 8
  %call = call noundef signext i8 @_ZNK6icu_7513UnicodeString14hasShortLengthEv(ptr noundef nonnull align 8 dereferenceable(64) %this1)
  %tobool = icmp ne i8 %call, 0
  br i1 %tobool, label %cond.true, label %cond.false

cond.true:                                        ; preds = %entry
  %call2 = call noundef i32 @_ZNK6icu_7513UnicodeString14getShortLengthEv(ptr noundef nonnull align 8 dereferenceable(64) %this1)
  br label %cond.end

cond.false:                                       ; preds = %entry
  %fUnion = getelementptr inbounds %"class.icu_75::UnicodeString", ptr %this1, i32 0, i32 1
  %fLength = getelementptr inbounds %struct.anon.0, ptr %fUnion, i32 0, i32 1
  %0 = load i32, ptr %fLength, align 4
  br label %cond.end

cond.end:                                         ; preds = %cond.false, %cond.true
  %cond = phi i32 [ %call2, %cond.true ], [ %0, %cond.false ]
  ret i32 %cond
}

; Function Attrs: mustprogress uwtable
define void @_ZN6icu_7522TransliteratorIDParser7STVtoIDERKNS_13UnicodeStringES3_S3_RS1_(ptr noundef nonnull align 8 dereferenceable(64) %source, ptr noundef nonnull align 8 dereferenceable(64) %target, ptr noundef nonnull align 8 dereferenceable(64) %variant, ptr noundef nonnull align 8 dereferenceable(64) %id) #1 align 2 {
entry:
  %source.addr = alloca ptr, align 8
  %target.addr = alloca ptr, align 8
  %variant.addr = alloca ptr, align 8
  %id.addr = alloca ptr, align 8
  store ptr %source, ptr %source.addr, align 8
  store ptr %target, ptr %target.addr, align 8
  store ptr %variant, ptr %variant.addr, align 8
  store ptr %id, ptr %id.addr, align 8
  %0 = load ptr, ptr %source.addr, align 8
  %1 = load ptr, ptr %id.addr, align 8
  %call = call noundef nonnull align 8 dereferenceable(64) ptr @_ZN6icu_7513UnicodeStringaSERKS0_(ptr noundef nonnull align 8 dereferenceable(64) %1, ptr noundef nonnull align 8 dereferenceable(64) %0)
  %2 = load ptr, ptr %id.addr, align 8
  %call1 = call noundef i32 @_ZNK6icu_7513UnicodeString6lengthEv(ptr noundef nonnull align 8 dereferenceable(64) %2)
  %cmp = icmp eq i32 %call1, 0
  br i1 %cmp, label %if.then, label %if.end

if.then:                                          ; preds = %entry
  %3 = load ptr, ptr %id.addr, align 8
  %call2 = call noundef nonnull align 8 dereferenceable(64) ptr @_ZN6icu_7513UnicodeString5setToEPKDsi(ptr noundef nonnull align 8 dereferenceable(64) %3, ptr noundef @_ZN6icu_75L3ANYE, i32 noundef 3)
  br label %if.end

if.end:                                           ; preds = %if.then, %entry
  %4 = load ptr, ptr %id.addr, align 8
  %call3 = call noundef nonnull align 8 dereferenceable(64) ptr @_ZN6icu_7513UnicodeString6appendEDs(ptr noundef nonnull align 8 dereferenceable(64) %4, i16 noundef zeroext 45)
  %5 = load ptr, ptr %target.addr, align 8
  %call4 = call noundef nonnull align 8 dereferenceable(64) ptr @_ZN6icu_7513UnicodeString6appendERKS0_(ptr noundef nonnull align 8 dereferenceable(64) %call3, ptr noundef nonnull align 8 dereferenceable(64) %5)
  %6 = load ptr, ptr %variant.addr, align 8
  %call5 = call noundef i32 @_ZNK6icu_7513UnicodeString6lengthEv(ptr noundef nonnull align 8 dereferenceable(64) %6)
  %cmp6 = icmp ne i32 %call5, 0
  br i1 %cmp6, label %if.then7, label %if.end10

if.then7:                                         ; preds = %if.end
  %7 = load ptr, ptr %id.addr, align 8
  %call8 = call noundef nonnull align 8 dereferenceable(64) ptr @_ZN6icu_7513UnicodeString6appendEDs(ptr noundef nonnull align 8 dereferenceable(64) %7, i16 noundef zeroext 47)
  %8 = load ptr, ptr %variant.addr, align 8
  %call9 = call noundef nonnull align 8 dereferenceable(64) ptr @_ZN6icu_7513UnicodeString6appendERKS0_(ptr noundef nonnull align 8 dereferenceable(64) %call8, ptr noundef nonnull align 8 dereferenceable(64) %8)
  br label %if.end10

if.end10:                                         ; preds = %if.then7, %if.end
  %9 = load ptr, ptr %id.addr, align 8
  %call11 = call noundef nonnull align 8 dereferenceable(64) ptr @_ZN6icu_7513UnicodeString6appendEDs(ptr noundef nonnull align 8 dereferenceable(64) %9, i16 noundef zeroext 0)
  %10 = load ptr, ptr %id.addr, align 8
  %11 = load ptr, ptr %id.addr, align 8
  %call12 = call noundef i32 @_ZNK6icu_7513UnicodeString6lengthEv(ptr noundef nonnull align 8 dereferenceable(64) %11)
  %sub = sub nsw i32 %call12, 1
  %call13 = call noundef signext i8 @_ZN6icu_7513UnicodeString8truncateEi(ptr noundef nonnull align 8 dereferenceable(64) %10, i32 noundef %sub)
  ret void
}