; Function Attrs: mustprogress uwtable
define void @_ZN6icu_7522TransliteratorIDParser7STVtoIDERKNS_13UnicodeStringES3_S3_RS1_(ptr noundef nonnull align 8 dereferenceable(64) %source, ptr noundef nonnull align 8 dereferenceable(64) %target, ptr noundef nonnull align 8 dereferenceable(64) %variant, ptr noundef nonnull align 8 dereferenceable(64) %id) local_unnamed_addr #1 align 2 {
entry:
  %srcChar.addr.i28 = alloca i16, align 2
  %srcChar.addr.i20 = alloca i16, align 2
  %srcChar.addr.i = alloca i16, align 2
  %call = tail call noundef nonnull align 8 dereferenceable(64) ptr @_ZN6icu_7513UnicodeStringaSERKS0_(ptr noundef nonnull align 8 dereferenceable(64) %id, ptr noundef nonnull align 8 dereferenceable(64) %source)
  %fUnion.i.i = getelementptr inbounds i8, ptr %id, i64 8
  %0 = load i16, ptr %fUnion.i.i, align 8
  %cmp.i.i = icmp slt i16 %0, 0
  %1 = ashr i16 %0, 5
  %shr.i.i = sext i16 %1 to i32
  %fLength.i = getelementptr inbounds i8, ptr %id, i64 12
  %2 = load i32, ptr %fLength.i, align 4
  %cond.i = select i1 %cmp.i.i, i32 %2, i32 %shr.i.i
  %cmp = icmp eq i32 %cond.i, 0
  br i1 %cmp, label %if.then, label %if.end

if.then:                                          ; preds = %entry
  tail call void @_ZN6icu_7513UnicodeString7unBogusEv(ptr noundef nonnull align 8 dereferenceable(64) %id)
  %3 = load i16, ptr %fUnion.i.i, align 8
  %cmp.i.i.i = icmp slt i16 %3, 0
  %4 = ashr i16 %3, 5
  %shr.i.i.i = sext i16 %4 to i32
  %5 = load i32, ptr %fLength.i, align 4
  %cond.i.i = select i1 %cmp.i.i.i, i32 %5, i32 %shr.i.i.i
  %call2.i = tail call noundef nonnull align 8 dereferenceable(64) ptr @_ZN6icu_7513UnicodeString9doReplaceEiiPKDsii(ptr noundef nonnull align 8 dereferenceable(64) %id, i32 noundef 0, i32 noundef %cond.i.i, ptr noundef nonnull @_ZN6icu_75L3ANYE, i32 noundef 0, i32 noundef 3)
  br label %if.end

if.end:                                           ; preds = %if.then, %entry
  call void @llvm.lifetime.start.p0(i64 2, ptr nonnull %srcChar.addr.i)
  store i16 45, ptr %srcChar.addr.i, align 2
  %call.i = call noundef nonnull align 8 dereferenceable(64) ptr @_ZN6icu_7513UnicodeString8doAppendEPKDsii(ptr noundef nonnull align 8 dereferenceable(64) %id, ptr noundef nonnull %srcChar.addr.i, i32 noundef 0, i32 noundef 1)
  call void @llvm.lifetime.end.p0(i64 2, ptr nonnull %srcChar.addr.i)
  %fUnion.i.i.i9 = getelementptr inbounds i8, ptr %target, i64 8
  %6 = load i16, ptr %fUnion.i.i.i9, align 8
  %cmp.i.i.i10 = icmp slt i16 %6, 0
  %7 = ashr i16 %6, 5
  %shr.i.i.i11 = sext i16 %7 to i32
  %fLength.i.i12 = getelementptr inbounds i8, ptr %target, i64 12
  %8 = load i32, ptr %fLength.i.i12, align 4
  %cond.i.i13 = select i1 %cmp.i.i.i10, i32 %8, i32 %shr.i.i.i11
  %call2.i14 = call noundef nonnull align 8 dereferenceable(64) ptr @_ZN6icu_7513UnicodeString8doAppendERKS0_ii(ptr noundef nonnull align 8 dereferenceable(64) %call.i, ptr noundef nonnull align 8 dereferenceable(64) %target, i32 noundef 0, i32 noundef %cond.i.i13)
  %fUnion.i.i15 = getelementptr inbounds i8, ptr %variant, i64 8
  %9 = load i16, ptr %fUnion.i.i15, align 8
  %cmp.i.i16 = icmp slt i16 %9, 0
  %10 = ashr i16 %9, 5
  %shr.i.i17 = sext i16 %10 to i32
  %fLength.i18 = getelementptr inbounds i8, ptr %variant, i64 12
  %11 = load i32, ptr %fLength.i18, align 4
  %cond.i19 = select i1 %cmp.i.i16, i32 %11, i32 %shr.i.i17
  %cmp6.not = icmp eq i32 %cond.i19, 0
  br i1 %cmp6.not, label %if.end10, label %if.then7

if.then7:                                         ; preds = %if.end
  call void @llvm.lifetime.start.p0(i64 2, ptr nonnull %srcChar.addr.i20)
  store i16 47, ptr %srcChar.addr.i20, align 2
  %call.i21 = call noundef nonnull align 8 dereferenceable(64) ptr @_ZN6icu_7513UnicodeString8doAppendEPKDsii(ptr noundef nonnull align 8 dereferenceable(64) %id, ptr noundef nonnull %srcChar.addr.i20, i32 noundef 0, i32 noundef 1)
  call void @llvm.lifetime.end.p0(i64 2, ptr nonnull %srcChar.addr.i20)
  %12 = load i16, ptr %fUnion.i.i15, align 8
  %cmp.i.i.i23 = icmp slt i16 %12, 0
  %13 = ashr i16 %12, 5
  %shr.i.i.i24 = sext i16 %13 to i32
  %14 = load i32, ptr %fLength.i18, align 4
  %cond.i.i26 = select i1 %cmp.i.i.i23, i32 %14, i32 %shr.i.i.i24
  %call2.i27 = call noundef nonnull align 8 dereferenceable(64) ptr @_ZN6icu_7513UnicodeString8doAppendERKS0_ii(ptr noundef nonnull align 8 dereferenceable(64) %call.i21, ptr noundef nonnull align 8 dereferenceable(64) %variant, i32 noundef 0, i32 noundef %cond.i.i26)
  br label %if.end10

if.end10:                                         ; preds = %if.then7, %if.end
  call void @llvm.lifetime.start.p0(i64 2, ptr nonnull %srcChar.addr.i28)
  store i16 0, ptr %srcChar.addr.i28, align 2
  %call.i29 = call noundef nonnull align 8 dereferenceable(64) ptr @_ZN6icu_7513UnicodeString8doAppendEPKDsii(ptr noundef nonnull align 8 dereferenceable(64) %id, ptr noundef nonnull %srcChar.addr.i28, i32 noundef 0, i32 noundef 1)
  call void @llvm.lifetime.end.p0(i64 2, ptr nonnull %srcChar.addr.i28)
  %15 = load i16, ptr %fUnion.i.i, align 8
  %cmp.i.i31 = icmp slt i16 %15, 0
  %16 = ashr i16 %15, 5
  %shr.i.i32 = sext i16 %16 to i32
  %17 = load i32, ptr %fLength.i, align 4
  %cond.i34 = select i1 %cmp.i.i31, i32 %17, i32 %shr.i.i32
  %sub = add nsw i32 %cond.i34, -1
  %conv2.i5.i = and i16 %15, 1
  %tobool.i = icmp ne i16 %conv2.i5.i, 0
  %cmp.i = icmp eq i32 %sub, 0
  %or.cond.i = and i1 %tobool.i, %cmp.i
  br i1 %or.cond.i, label %if.then.i, label %if.else.i

if.then.i:                                        ; preds = %if.end10
  call void @_ZN6icu_7513UnicodeString7unBogusEv(ptr noundef nonnull align 8 dereferenceable(64) %id)
  br label %_ZN6icu_7513UnicodeString8truncateEi.exit

if.else.i:                                        ; preds = %if.end10
  %cmp3.i.not = icmp eq i32 %cond.i34, 0
  br i1 %cmp3.i.not, label %_ZN6icu_7513UnicodeString8truncateEi.exit, label %if.then4.i

if.then4.i:                                       ; preds = %if.else.i
  %cmp.i.i40 = icmp slt i32 %cond.i34, 1025
  br i1 %cmp.i.i40, label %if.then.i.i, label %if.else.i.i

if.then.i.i:                                      ; preds = %if.then4.i
  %18 = and i16 %15, 31
  %len.tr.i.i.i = trunc i32 %sub to i16
  %19 = shl i16 %len.tr.i.i.i, 5
  %conv2.i.i.i = or disjoint i16 %19, %18
  store i16 %conv2.i.i.i, ptr %fUnion.i.i, align 8
  br label %_ZN6icu_7513UnicodeString8truncateEi.exit

if.else.i.i:                                      ; preds = %if.then4.i
  %or.i.i = or i16 %15, -32
  store i16 %or.i.i, ptr %fUnion.i.i, align 8
  store i32 %sub, ptr %fLength.i, align 4
  br label %_ZN6icu_7513UnicodeString8truncateEi.exit

_ZN6icu_7513UnicodeString8truncateEi.exit:        ; preds = %if.then.i, %if.else.i, %if.then.i.i, %if.else.i.i
  ret void
}